; ModuleID = 'bench/wasmedge/original/spdlog.cpp.ll'
source_filename = "bench/wasmedge/original/spdlog.cpp.ll"
target datalayout = "e-m:e-p270:32:32-p271:32:32-p272:64:64-i64:64-i128:128-f80:128-n8:16:32:64-S128"
target triple = "x86_64-pc-linux-gnu"

; Function Attrs: mustprogress uwtable
define void @_ZN8WasmEdge3Log9setLogOffEv() local_unnamed_addr #0 {
  tail call void @_ZN6spdlog9set_levelENS_5level10level_enumE(i32 noundef 6)
  ret void
}

declare void @_ZN6spdlog9set_levelENS_5level10level_enumE(i32 noundef) local_unnamed_addr #1

; Function Attrs: mustprogress uwtable
define void @_ZN8WasmEdge3Log20setDebugLoggingLevelEv() local_unnamed_addr #0 {
  tail call void @_ZN6spdlog9set_levelENS_5level10level_enumE(i32 noundef 1)
  ret void
}

; Function Attrs: mustprogress uwtable
define void @_ZN8WasmEdge3Log19setInfoLoggingLevelEv() local_unnamed_addr #0 {
  tail call void @_ZN6spdlog9set_levelENS_5level10level_enumE(i32 noundef 2)
  ret void
}

; Function Attrs: mustprogress uwtable
define void @_ZN8WasmEdge3Log19setWarnLoggingLevelEv() local_unnamed_addr #0 {
  tail call void @_ZN6spdlog9set_levelENS_5level10level_enumE(i32 noundef 3)
  ret void
}

; Function Attrs: mustprogress uwtable
define void @_ZN8WasmEdge3Log20setErrorLoggingLevelEv() local_unnamed_addr #0 {
  tail call void @_ZN6spdlog9set_levelENS_5level10level_enumE(i32 noundef 4)
  ret void
}


!llvm.module.flags = !{!0, !1, !2, !3}

!0 = !{i32 1, !"wchar_size", i32 4}
!1 = !{i32 8, !"PIC Level", i32 2}
!2 = !{i32 7, !"uwtable", i32 2}
!3 = !{i32 7, !"frame-pointer", i32 2}
